; ModuleID = '19/756.c'
source_filename = "19/756.c"
target datalayout = "e-m:e-p270:32:32-p271:32:32-p272:64:64-i64:64-f80:128-n8:16:32:64-S128"
target triple = "x86_64-pc-linux-gnu"

@.str = private unnamed_addr constant [3 x i8] c"%s\00", align 1
@.str.1 = private unnamed_addr constant [4 x i8] c"%s \00", align 1

; Function Attrs: noinline nounwind uwtable
define dso_local void @main() #0 {
  %1 = alloca i32, align 4
  %2 = alloca i32, align 4
  %3 = alloca [100 x i8]*, align 8
  %4 = alloca i8*, align 8
  %5 = alloca i8*, align 8
  store i32 0, i32* %2, align 4
  %6 = call noalias i8* @malloc(i64 10000) #4
  %7 = bitcast i8* %6 to [100 x i8]*
  store [100 x i8]* %7, [100 x i8]** %3, align 8
  %8 = call noalias i8* @malloc(i64 100) #4
  store i8* %8, i8** %4, align 8
  %9 = call noalias i8* @malloc(i64 100) #4
  store i8* %9, i8** %5, align 8
  br label %10

10:                                               ; preds = %18, %0
  %11 = load [100 x i8]*, [100 x i8]** %3, align 8
  %12 = load i32, i32* %2, align 4
  %13 = sext i32 %12 to i64
  %14 = getelementptr inbounds [100 x i8], [100 x i8]* %11, i64 %13
  %15 = getelementptr inbounds [100 x i8], [100 x i8]* %14, i64 0, i64 0
  %16 = call i32 (i8*, ...) @__isoc99_scanf(i8* getelementptr inbounds ([3 x i8], [3 x i8]* @.str, i64 0, i64 0), i8* %15)
  %17 = icmp ne i32 %16, -1
  br i1 %17, label %18, label %21

18:                                               ; preds = %10
  %19 = load i32, i32* %2, align 4
  %20 = add nsw i32 %19, 1
  store i32 %20, i32* %2, align 4
  br label %10

21:                                               ; preds = %10
  %22 = load i32, i32* %2, align 4
  store i32 %22, i32* %1, align 4
  %23 = load i8*, i8** %4, align 8
  %24 = load [100 x i8]*, [100 x i8]** %3, align 8
  %25 = load i32, i32* %1, align 4
  %26 = sext i32 %25 to i64
  %27 = getelementptr inbounds [100 x i8], [100 x i8]* %24, i64 %26
  %28 = getelementptr inbounds [100 x i8], [100 x i8]* %27, i64 -2
  %29 = getelementptr inbounds [100 x i8], [100 x i8]* %28, i64 0, i64 0
  %30 = call i8* @strcpy(i8* %23, i8* %29) #4
  %31 = load i8*, i8** %5, align 8
  %32 = load [100 x i8]*, [100 x i8]** %3, align 8
  %33 = load i32, i32* %1, align 4
  %34 = sext i32 %33 to i64
  %35 = getelementptr inbounds [100 x i8], [100 x i8]* %32, i64 %34
  %36 = getelementptr inbounds [100 x i8], [100 x i8]* %35, i64 -1
  %37 = getelementptr inbounds [100 x i8], [100 x i8]* %36, i64 0, i64 0
  %38 = call i8* @strcpy(i8* %31, i8* %37) #4
  store i32 0, i32* %2, align 4
  br label %39

39:                                               ; preds = %62, %21
  %40 = load i32, i32* %2, align 4
  %41 = load i32, i32* %1, align 4
  %42 = sub nsw i32 %41, 2
  %43 = icmp slt i32 %40, %42
  br i1 %43, label %44, label %65

44:                                               ; preds = %39
  %45 = load i8*, i8** %4, align 8
  %46 = load [100 x i8]*, [100 x i8]** %3, align 8
  %47 = load i32, i32* %2, align 4
  %48 = sext i32 %47 to i64
  %49 = getelementptr inbounds [100 x i8], [100 x i8]* %46, i64 %48
  %50 = getelementptr inbounds [100 x i8], [100 x i8]* %49, i64 0, i64 0
  %51 = call i32 @strcmp(i8* %45, i8* %50) #5
  %52 = icmp eq i32 %51, 0
  br i1 %52, label %53, label %61

53:                                               ; preds = %44
  %54 = load [100 x i8]*, [100 x i8]** %3, align 8
  %55 = load i32, i32* %2, align 4
  %56 = sext i32 %55 to i64
  %57 = getelementptr inbounds [100 x i8], [100 x i8]* %54, i64 %56
  %58 = getelementptr inbounds [100 x i8], [100 x i8]* %57, i64 0, i64 0
  %59 = load i8*, i8** %5, align 8
  %60 = call i8* @strcpy(i8* %58, i8* %59) #4
  br label %61

61:                                               ; preds = %53, %44
  br label %62

62:                                               ; preds = %61
  %63 = load i32, i32* %2, align 4
  %64 = add nsw i32 %63, 1
  store i32 %64, i32* %2, align 4
  br label %39

65:                                               ; preds = %39
  store i32 0, i32* %2, align 4
  br label %66

66:                                               ; preds = %78, %65
  %67 = load i32, i32* %2, align 4
  %68 = load i32, i32* %1, align 4
  %69 = sub nsw i32 %68, 3
  %70 = icmp slt i32 %67, %69
  br i1 %70, label %71, label %81

71:                                               ; preds = %66
  %72 = load [100 x i8]*, [100 x i8]** %3, align 8
  %73 = load i32, i32* %2, align 4
  %74 = sext i32 %73 to i64
  %75 = getelementptr inbounds [100 x i8], [100 x i8]* %72, i64 %74
  %76 = getelementptr inbounds [100 x i8], [100 x i8]* %75, i64 0, i64 0
  %77 = call i32 (i8*, ...) @printf(i8* getelementptr inbounds ([4 x i8], [4 x i8]* @.str.1, i64 0, i64 0), i8* %76)
  br label %78

78:                                               ; preds = %71
  %79 = load i32, i32* %2, align 4
  %80 = add nsw i32 %79, 1
  store i32 %80, i32* %2, align 4
  br label %66

81:                                               ; preds = %66
  %82 = load [100 x i8]*, [100 x i8]** %3, align 8
  %83 = load i32, i32* %1, align 4
  %84 = sext i32 %83 to i64
  %85 = getelementptr inbounds [100 x i8], [100 x i8]* %82, i64 %84
  %86 = getelementptr inbounds [100 x i8], [100 x i8]* %85, i64 -3
  %87 = getelementptr inbounds [100 x i8], [100 x i8]* %86, i64 0, i64 0
  %88 = call i32 (i8*, ...) @printf(i8* getelementptr inbounds ([3 x i8], [3 x i8]* @.str, i64 0, i64 0), i8* %87)
  ret void
}

; Function Attrs: nounwind
declare dso_local noalias i8* @malloc(i64) #1

declare dso_local i32 @__isoc99_scanf(i8*, ...) #2

; Function Attrs: nounwind
declare dso_local i8* @strcpy(i8*, i8*) #1

; Function Attrs: nounwind readonly
declare dso_local i32 @strcmp(i8*, i8*) #3

declare dso_local i32 @printf(i8*, ...) #2


!llvm.module.flags = !{!0}
!llvm.ident = !{!1}

!0 = !{i32 1, !"wchar_size", i32 4}
!1 = !{!"clang version 10.0.0-4ubuntu1 "}
